target datalayout = "e-m:e-p270:32:32-p271:32:32-p272:64:64-i64:64-i128:128-f80:128-n8:16:32:64-S128"
target triple = "x86_64-unknown-linux-gnu"

%"class.google::protobuf::io::EpsCopyOutputStream" = type <{ ptr, ptr, [32 x i8], ptr, i8, i8, i8, i8, [4 x i8] }>
%"struct.google::protobuf::Metadata" = type { ptr, ptr }
%"class.google::protobuf::internal::SymbolBase" = type { i8 }
%"class.google::protobuf::FieldDescriptor" = type { %"class.google::protobuf::internal::SymbolBase", i8, i8, i8, i32, ptr, ptr, ptr, ptr, %union.anon.33, %union.anon.34, ptr, ptr, ptr, %union.anon.35 }
%union.anon.33 = type { ptr }
%union.anon.34 = type { ptr }
%union.anon.35 = type { i64 }

; Function Attrs: mustprogress nounwind uwtable
define linkonce_odr hidden noundef i32 @_ZN6google8protobuf8internal14WireFormatLite7MakeTagEiNS2_8WireTypeE(i32 noundef %field_number, i32 noundef %type) #5 comdat align 2 {
entry:
  %field_number.addr = alloca i32, align 4
  %type.addr = alloca i32, align 4
  store i32 %field_number, ptr %field_number.addr, align 4
  store i32 %type, ptr %type.addr, align 4
  %0 = load i32, ptr %field_number.addr, align 4
  %shl = shl i32 %0, 3
  %1 = load i32, ptr %type.addr, align 4
  %or = or i32 %shl, %1
  ret i32 %or
}

; Function Attrs: mustprogress nounwind uwtable
define linkonce_odr hidden noundef i32 @_ZNK6google8protobuf15FieldDescriptor6numberEv(ptr noundef nonnull align 8 dereferenceable(88) %this) #5 comdat align 2 {
entry:
  %this.addr = alloca ptr, align 8
  store ptr %this, ptr %this.addr, align 8
  %this1 = load ptr, ptr %this.addr, align 8
  %number_ = getelementptr inbounds %"class.google::protobuf::FieldDescriptor", ptr %this1, i32 0, i32 4
  %0 = load i32, ptr %number_, align 4
  ret i32 %0
}

; Function Attrs: mustprogress uwtable
define linkonce_odr hidden noundef ptr @_ZN6google8protobuf2io17CodedOutputStream20WriteVarint32ToArrayEjPh(i32 noundef %value, ptr noundef %target) #4 comdat align 2 {
entry:
  %value.addr.i = alloca i32, align 4
  %ptr.addr.i = alloca ptr, align 8
  %value.addr = alloca i32, align 4
  %target.addr = alloca ptr, align 8
  store i32 %value, ptr %value.addr, align 4
  store ptr %target, ptr %target.addr, align 8
  %0 = load i32, ptr %value.addr, align 4
  %1 = load ptr, ptr %target.addr, align 8
  store i32 %0, ptr %value.addr.i, align 4
  store ptr %1, ptr %ptr.addr.i, align 8
  br label %while.cond.i

while.cond.i:                                     ; preds = %while.body.i, %entry
  %2 = load i32, ptr %value.addr.i, align 4
  %cmp.i = icmp uge i32 %2, 128
  br i1 %cmp.i, label %while.body.i, label %_ZN6google8protobuf2io19EpsCopyOutputStream12UnsafeVarintIjEEPhT_S4_.exit

while.body.i:                                     ; preds = %while.cond.i
  %3 = load i32, ptr %value.addr.i, align 4
  %or.i = or i32 %3, 128
  %conv.i = trunc i32 %or.i to i8
  %4 = load ptr, ptr %ptr.addr.i, align 8
  store i8 %conv.i, ptr %4, align 1
  %5 = load i32, ptr %value.addr.i, align 4
  %shr.i = lshr i32 %5, 7
  store i32 %shr.i, ptr %value.addr.i, align 4
  %6 = load ptr, ptr %ptr.addr.i, align 8
  %incdec.ptr.i = getelementptr inbounds i8, ptr %6, i32 1
  store ptr %incdec.ptr.i, ptr %ptr.addr.i, align 8
  br label %while.cond.i, !llvm.loop !7

_ZN6google8protobuf2io19EpsCopyOutputStream12UnsafeVarintIjEEPhT_S4_.exit: ; preds = %while.cond.i
  %7 = load i32, ptr %value.addr.i, align 4
  %conv1.i = trunc i32 %7 to i8
  %8 = load ptr, ptr %ptr.addr.i, align 8
  %incdec.ptr2.i = getelementptr inbounds i8, ptr %8, i32 1
  store ptr %incdec.ptr2.i, ptr %ptr.addr.i, align 8
  store i8 %conv1.i, ptr %8, align 1
  %9 = load ptr, ptr %ptr.addr.i, align 8
  ret ptr %9
}

; Function Attrs: mustprogress uwtable
define linkonce_odr hidden noundef ptr @_ZN6google8protobuf2io19EpsCopyOutputStream11EnsureSpaceEPh(ptr noundef nonnull align 8 dereferenceable(60) %this, ptr noundef %ptr) #4 comdat align 2 {
entry:
  %retval = alloca ptr, align 8
  %this.addr = alloca ptr, align 8
  %ptr.addr = alloca ptr, align 8
  store ptr %this, ptr %this.addr, align 8
  store ptr %ptr, ptr %ptr.addr, align 8
  %this1 = load ptr, ptr %this.addr, align 8
  %0 = load ptr, ptr %ptr.addr, align 8
  %end_ = getelementptr inbounds %"class.google::protobuf::io::EpsCopyOutputStream", ptr %this1, i32 0, i32 0
  %1 = load ptr, ptr %end_, align 8
  %cmp = icmp uge ptr %0, %1
  br i1 %cmp, label %if.then, label %if.end

if.then:                                          ; preds = %entry
  %2 = load ptr, ptr %ptr.addr, align 8
  %call = call noundef ptr @_ZN6google8protobuf2io19EpsCopyOutputStream19EnsureSpaceFallbackEPh(ptr noundef nonnull align 8 dereferenceable(60) %this1, ptr noundef %2)
  store ptr %call, ptr %retval, align 8
  br label %return

if.end:                                           ; preds = %entry
  %3 = load ptr, ptr %ptr.addr, align 8
  store ptr %3, ptr %retval, align 8
  br label %return

return:                                           ; preds = %if.end, %if.then
  %4 = load ptr, ptr %retval, align 8
  ret ptr %4
}

; Function Attrs: mustprogress uwtable
define linkonce_odr hidden noundef ptr @_ZNK6google8protobuf7Message13GetReflectionEv(ptr noundef nonnull align 8 dereferenceable(16) %this) #4 comdat align 2 {
entry:
  %this.addr = alloca ptr, align 8
  %ref.tmp = alloca %"struct.google::protobuf::Metadata", align 8
  store ptr %this, ptr %this.addr, align 8
  %this1 = load ptr, ptr %this.addr, align 8
  %vtable = load ptr, ptr %this1, align 8
  %vfn = getelementptr inbounds ptr, ptr %vtable, i64 10
  %0 = load ptr, ptr %vfn, align 8
  %call = call { ptr, ptr } %0(ptr noundef nonnull align 8 dereferenceable(16) %this1)
  %1 = getelementptr inbounds { ptr, ptr }, ptr %ref.tmp, i32 0, i32 0
  %2 = extractvalue { ptr, ptr } %call, 0
  store ptr %2, ptr %1, align 8
  %3 = getelementptr inbounds { ptr, ptr }, ptr %ref.tmp, i32 0, i32 1
  %4 = extractvalue { ptr, ptr } %call, 1
  store ptr %4, ptr %3, align 8
  %reflection = getelementptr inbounds %"struct.google::protobuf::Metadata", ptr %ref.tmp, i32 0, i32 1
  %5 = load ptr, ptr %reflection, align 8
  ret ptr %5
}

; Function Attrs: mustprogress uwtable
define noundef ptr @_ZN6google8protobuf8internal10WireFormat31InternalSerializeMessageSetItemEPKNS0_15FieldDescriptorERKNS0_7MessageEPhPNS0_2io19EpsCopyOutputStreamE(ptr noundef %field, ptr noundef nonnull align 8 dereferenceable(16) %message, ptr noundef %target, ptr noundef %stream) #4 align 2 {
entry:
  %value.addr.i15 = alloca i32, align 4
  %target.addr.i16 = alloca ptr, align 8
  %value.addr.i.i = alloca i32, align 4
  %target.addr.i2.i = alloca ptr, align 8
  %field_number.addr.i.i = alloca i32, align 4
  %type.addr.i.i = alloca i32, align 4
  %target.addr.i.i = alloca ptr, align 8
  %field_number.addr.i = alloca i32, align 4
  %value.addr.i13 = alloca i32, align 4
  %target.addr.i14 = alloca ptr, align 8
  %value.addr.i10 = alloca i32, align 4
  %target.addr.i11 = alloca ptr, align 8
  %value.addr.i = alloca i32, align 4
  %target.addr.i = alloca ptr, align 8
  %field.addr = alloca ptr, align 8
  %message.addr = alloca ptr, align 8
  %target.addr = alloca ptr, align 8
  %stream.addr = alloca ptr, align 8
  %message_reflection = alloca ptr, align 8
  %msg = alloca ptr, align 8
  store ptr %field, ptr %field.addr, align 8
  store ptr %message, ptr %message.addr, align 8
  store ptr %target, ptr %target.addr, align 8
  store ptr %stream, ptr %stream.addr, align 8
  %0 = load ptr, ptr %message.addr, align 8
  %call = call noundef ptr @_ZNK6google8protobuf7Message13GetReflectionEv(ptr noundef nonnull align 8 dereferenceable(16) %0)
  store ptr %call, ptr %message_reflection, align 8
  %1 = load ptr, ptr %stream.addr, align 8
  %2 = load ptr, ptr %target.addr, align 8
  %call1 = call noundef ptr @_ZN6google8protobuf2io19EpsCopyOutputStream11EnsureSpaceEPh(ptr noundef nonnull align 8 dereferenceable(60) %1, ptr noundef %2)
  store ptr %call1, ptr %target.addr, align 8
  %3 = load ptr, ptr %target.addr, align 8
  store i32 11, ptr %value.addr.i10, align 4
  store ptr %3, ptr %target.addr.i11, align 8
  %4 = load i32, ptr %value.addr.i10, align 4
  %5 = load ptr, ptr %target.addr.i11, align 8
  %call.i12 = call noundef ptr @_ZN6google8protobuf2io17CodedOutputStream20WriteVarint32ToArrayEjPh(i32 noundef %4, ptr noundef %5)
  store ptr %call.i12, ptr %target.addr, align 8
  %6 = load ptr, ptr %field.addr, align 8
  %call3 = call noundef i32 @_ZNK6google8protobuf15FieldDescriptor6numberEv(ptr noundef nonnull align 8 dereferenceable(88) %6)
  %7 = load ptr, ptr %target.addr, align 8
  store i32 2, ptr %field_number.addr.i, align 4
  store i32 %call3, ptr %value.addr.i13, align 4
  store ptr %7, ptr %target.addr.i14, align 8
  %8 = load i32, ptr %field_number.addr.i, align 4
  %9 = load ptr, ptr %target.addr.i14, align 8
  store i32 %8, ptr %field_number.addr.i.i, align 4
  store i32 0, ptr %type.addr.i.i, align 4
  store ptr %9, ptr %target.addr.i.i, align 8
  %10 = load i32, ptr %field_number.addr.i.i, align 4
  %11 = load i32, ptr %type.addr.i.i, align 4
  %call.i.i = call noundef i32 @_ZN6google8protobuf8internal14WireFormatLite7MakeTagEiNS2_8WireTypeE(i32 noundef %10, i32 noundef %11)
  %12 = load ptr, ptr %target.addr.i.i, align 8
  store i32 %call.i.i, ptr %value.addr.i.i, align 4
  store ptr %12, ptr %target.addr.i2.i, align 8
  %13 = load i32, ptr %value.addr.i.i, align 4
  %14 = load ptr, ptr %target.addr.i2.i, align 8
  %call.i3.i = call noundef ptr @_ZN6google8protobuf2io17CodedOutputStream20WriteVarint32ToArrayEjPh(i32 noundef %13, ptr noundef %14)
  store ptr %call.i3.i, ptr %target.addr.i14, align 8
  %15 = load i32, ptr %value.addr.i13, align 4
  %16 = load ptr, ptr %target.addr.i14, align 8
  store i32 %15, ptr %value.addr.i15, align 4
  store ptr %16, ptr %target.addr.i16, align 8
  %17 = load i32, ptr %value.addr.i15, align 4
  %18 = load ptr, ptr %target.addr.i16, align 8
  %call.i17 = call noundef ptr @_ZN6google8protobuf2io17CodedOutputStream20WriteVarint32ToArrayEjPh(i32 noundef %17, ptr noundef %18)
  store ptr %call.i17, ptr %target.addr, align 8
  %19 = load ptr, ptr %message_reflection, align 8
  %20 = load ptr, ptr %message.addr, align 8
  %21 = load ptr, ptr %field.addr, align 8
  %call5 = call noundef nonnull align 8 dereferenceable(16) ptr @_ZNK6google8protobuf10Reflection10GetMessageERKNS0_7MessageEPKNS0_15FieldDescriptorEPNS0_14MessageFactoryE(ptr noundef nonnull align 8 dereferenceable(112) %19, ptr noundef nonnull align 8 dereferenceable(16) %20, ptr noundef %21, ptr noundef null)
  store ptr %call5, ptr %msg, align 8
  %22 = load ptr, ptr %msg, align 8
  %23 = load ptr, ptr %msg, align 8
  %call6 = call noundef i32 @_ZNK6google8protobuf11MessageLite13GetCachedSizeEv(ptr noundef nonnull align 8 dereferenceable(16) %23)
  %24 = load ptr, ptr %target.addr, align 8
  %25 = load ptr, ptr %stream.addr, align 8
  %call7 = call noundef ptr @_ZN6google8protobuf8internal14WireFormatLite20InternalWriteMessageEiRKNS0_11MessageLiteEiPhPNS0_2io19EpsCopyOutputStreamE(i32 noundef 3, ptr noundef nonnull align 8 dereferenceable(16) %22, i32 noundef %call6, ptr noundef %24, ptr noundef %25)
  store ptr %call7, ptr %target.addr, align 8
  %26 = load ptr, ptr %stream.addr, align 8
  %27 = load ptr, ptr %target.addr, align 8
  %call8 = call noundef ptr @_ZN6google8protobuf2io19EpsCopyOutputStream11EnsureSpaceEPh(ptr noundef nonnull align 8 dereferenceable(60) %26, ptr noundef %27)
  store ptr %call8, ptr %target.addr, align 8
  %28 = load ptr, ptr %target.addr, align 8
  store i32 12, ptr %value.addr.i, align 4
  store ptr %28, ptr %target.addr.i, align 8
  %29 = load i32, ptr %value.addr.i, align 4
  %30 = load ptr, ptr %target.addr.i, align 8
  %call.i = call noundef ptr @_ZN6google8protobuf2io17CodedOutputStream20WriteVarint32ToArrayEjPh(i32 noundef %29, ptr noundef %30)
  store ptr %call.i, ptr %target.addr, align 8
  %31 = load ptr, ptr %target.addr, align 8
  ret ptr %31
}