; Function Attrs: mustprogress uwtable
define noundef ptr @_ZN6google8protobuf8internal10WireFormat31InternalSerializeMessageSetItemEPKNS0_15FieldDescriptorERKNS0_7MessageEPhPNS0_2io19EpsCopyOutputStreamE(ptr noundef %field, ptr noundef nonnull align 8 dereferenceable(16) %message, ptr noundef %target, ptr noundef %stream) local_unnamed_addr #3 align 2 {
entry:
  %vtable.i = load ptr, ptr %message, align 8
  %vfn.i = getelementptr inbounds nuw i8, ptr %vtable.i, i64 80
  %0 = load ptr, ptr %vfn.i, align 8
  %call.i13 = tail call { ptr, ptr } %0(ptr noundef nonnull align 8 dereferenceable(16) %message)
  %1 = extractvalue { ptr, ptr } %call.i13, 1
  %2 = load ptr, ptr %stream, align 8
  %cmp.not.i = icmp ult ptr %target, %2
  br i1 %cmp.not.i, label %_ZN6google8protobuf2io19EpsCopyOutputStream11EnsureSpaceEPh.exit, label %if.then.i

if.then.i:                                        ; preds = %entry
  %call.i14 = tail call noundef ptr @_ZN6google8protobuf2io19EpsCopyOutputStream19EnsureSpaceFallbackEPh(ptr noundef nonnull align 8 dereferenceable(60) %stream, ptr noundef %target)
  br label %_ZN6google8protobuf2io19EpsCopyOutputStream11EnsureSpaceEPh.exit

_ZN6google8protobuf2io19EpsCopyOutputStream11EnsureSpaceEPh.exit: ; preds = %entry, %if.then.i
  %retval.0.i = phi ptr [ %call.i14, %if.then.i ], [ %target, %entry ]
  %incdec.ptr2.i.i = getelementptr inbounds nuw i8, ptr %retval.0.i, i64 1
  store i8 11, ptr %retval.0.i, align 1
  %number_.i = getelementptr inbounds nuw i8, ptr %field, i64 4
  %3 = load i32, ptr %number_.i, align 4
  %incdec.ptr2.i.i15 = getelementptr inbounds nuw i8, ptr %retval.0.i, i64 2
  store i8 16, ptr %incdec.ptr2.i.i, align 1
  %cmp.i7.i = icmp ugt i32 %3, 127
  br i1 %cmp.i7.i, label %while.body.i.i, label %_ZN6google8protobuf2io17CodedOutputStream20WriteVarint32ToArrayEjPh.exit

while.body.i.i:                                   ; preds = %_ZN6google8protobuf2io19EpsCopyOutputStream11EnsureSpaceEPh.exit, %while.body.i.i
  %value.addr.i.09.i = phi i32 [ %shr.i.i, %while.body.i.i ], [ %3, %_ZN6google8protobuf2io19EpsCopyOutputStream11EnsureSpaceEPh.exit ]
  %ptr.addr.i.08.i = phi ptr [ %incdec.ptr.i.i, %while.body.i.i ], [ %incdec.ptr2.i.i15, %_ZN6google8protobuf2io19EpsCopyOutputStream11EnsureSpaceEPh.exit ]
  %4 = trunc i32 %value.addr.i.09.i to i8
  %conv.i.i = or i8 %4, -128
  store i8 %conv.i.i, ptr %ptr.addr.i.08.i, align 1
  %shr.i.i = lshr i32 %value.addr.i.09.i, 7
  %incdec.ptr.i.i = getelementptr inbounds nuw i8, ptr %ptr.addr.i.08.i, i64 1
  %cmp.i.i = icmp ugt i32 %value.addr.i.09.i, 16383
  br i1 %cmp.i.i, label %while.body.i.i, label %_ZN6google8protobuf2io17CodedOutputStream20WriteVarint32ToArrayEjPh.exit, !llvm.loop !7

_ZN6google8protobuf2io17CodedOutputStream20WriteVarint32ToArrayEjPh.exit: ; preds = %while.body.i.i, %_ZN6google8protobuf2io19EpsCopyOutputStream11EnsureSpaceEPh.exit
  %ptr.addr.i.0.lcssa.i = phi ptr [ %incdec.ptr2.i.i15, %_ZN6google8protobuf2io19EpsCopyOutputStream11EnsureSpaceEPh.exit ], [ %incdec.ptr.i.i, %while.body.i.i ]
  %value.addr.i.0.lcssa.i = phi i32 [ %3, %_ZN6google8protobuf2io19EpsCopyOutputStream11EnsureSpaceEPh.exit ], [ %shr.i.i, %while.body.i.i ]
  %conv1.i.i = trunc nuw nsw i32 %value.addr.i.0.lcssa.i to i8
  %incdec.ptr2.i.i16 = getelementptr inbounds nuw i8, ptr %ptr.addr.i.0.lcssa.i, i64 1
  store i8 %conv1.i.i, ptr %ptr.addr.i.0.lcssa.i, align 1
  %call5 = tail call noundef nonnull align 8 dereferenceable(16) ptr @_ZNK6google8protobuf10Reflection10GetMessageERKNS0_7MessageEPKNS0_15FieldDescriptorEPNS0_14MessageFactoryE(ptr noundef nonnull align 8 dereferenceable(112) %1, ptr noundef nonnull align 8 dereferenceable(16) %message, ptr noundef nonnull %field, ptr noundef null)
  %call6 = tail call noundef i32 @_ZNK6google8protobuf11MessageLite13GetCachedSizeEv(ptr noundef nonnull align 8 dereferenceable(16) %call5)
  %call7 = tail call noundef ptr @_ZN6google8protobuf8internal14WireFormatLite20InternalWriteMessageEiRKNS0_11MessageLiteEiPhPNS0_2io19EpsCopyOutputStreamE(i32 noundef 3, ptr noundef nonnull align 8 dereferenceable(16) %call5, i32 noundef %call6, ptr noundef nonnull %incdec.ptr2.i.i16, ptr noundef nonnull %stream)
  %5 = load ptr, ptr %stream, align 8
  %cmp.not.i17 = icmp ult ptr %call7, %5
  br i1 %cmp.not.i17, label %_ZN6google8protobuf2io19EpsCopyOutputStream11EnsureSpaceEPh.exit21, label %if.then.i18

if.then.i18:                                      ; preds = %_ZN6google8protobuf2io17CodedOutputStream20WriteVarint32ToArrayEjPh.exit
  %call.i19 = tail call noundef ptr @_ZN6google8protobuf2io19EpsCopyOutputStream19EnsureSpaceFallbackEPh(ptr noundef nonnull align 8 dereferenceable(60) %stream, ptr noundef %call7)
  br label %_ZN6google8protobuf2io19EpsCopyOutputStream11EnsureSpaceEPh.exit21

_ZN6google8protobuf2io19EpsCopyOutputStream11EnsureSpaceEPh.exit21: ; preds = %_ZN6google8protobuf2io17CodedOutputStream20WriteVarint32ToArrayEjPh.exit, %if.then.i18
  %retval.0.i20 = phi ptr [ %call.i19, %if.then.i18 ], [ %call7, %_ZN6google8protobuf2io17CodedOutputStream20WriteVarint32ToArrayEjPh.exit ]
  %incdec.ptr2.i.i25 = getelementptr inbounds nuw i8, ptr %retval.0.i20, i64 1
  store i8 12, ptr %retval.0.i20, align 1
  ret ptr %incdec.ptr2.i.i25
}